Archive member included to satisfy reference by file (symbol)

/usr/lib/x86_64-linux-gnu/libc_nonshared.a(elf-init.oS)
                              /usr/lib/gcc/x86_64-linux-gnu/4.8/../../../x86_64-linux-gnu/crt1.o (__libc_csu_init)

As-needed library included to satisfy reference by file (symbol)

libarsal.so                   /home/mech-user/bebop_ws/devel/.private/bebop_driver/arsdk/out/Unix-base/build/BebopDroneReceiveStream/obj/BebopDroneReceiveStream.c.o (ARSAL_Print_PrintRaw)
libarcommands.so              /home/mech-user/bebop_ws/devel/.private/bebop_driver/arsdk/out/Unix-base/build/BebopDroneReceiveStream/obj/BebopDroneReceiveStream.c.o (ARCOMMANDS_Generator_GenerateARDrone3MediaStreamingVideoEnable)
libarnetwork.so               /home/mech-user/bebop_ws/devel/.private/bebop_driver/arsdk/out/Unix-base/build/BebopDroneReceiveStream/obj/BebopDroneReceiveStream.c.o (ARNETWORK_Manager_ReceivingThreadRun)
libarnetworkal.so             /home/mech-user/bebop_ws/devel/.private/bebop_driver/arsdk/out/Unix-base/build/BebopDroneReceiveStream/obj/BebopDroneReceiveStream.c.o (ARNETWORKAL_Error_ToString)
libardiscovery.so             /home/mech-user/bebop_ws/devel/.private/bebop_driver/arsdk/out/Unix-base/build/BebopDroneReceiveStream/obj/BebopDroneReceiveStream.c.o (ARDISCOVERY_Connection_New)
libarstream.so                /home/mech-user/bebop_ws/devel/.private/bebop_driver/arsdk/out/Unix-base/build/BebopDroneReceiveStream/obj/BebopDroneReceiveStream.c.o (ARSTREAM_Reader_New)
libpthread.so.0               /home/mech-user/bebop_ws/devel/.private/bebop_driver/arsdk/out/Unix-base/build/BebopDroneReceiveStream/obj/BebopDroneReceiveStream.c.o (fork@@GLIBC_2.2.5)
libc.so.6                     /home/mech-user/bebop_ws/devel/.private/bebop_driver/arsdk/out/Unix-base/build/BebopDroneReceiveStream/obj/BebopDroneReceiveStream.c.o (fflush@@GLIBC_2.2.5)

破棄された入力セクション

 .rodata.cst4   0x0000000000000000        0x4 /usr/lib/gcc/x86_64-linux-gnu/4.8/../../../x86_64-linux-gnu/crt1.o
 .data          0x0000000000000000        0x4 /usr/lib/gcc/x86_64-linux-gnu/4.8/../../../x86_64-linux-gnu/crt1.o
 .bss           0x0000000000000000        0x0 /usr/lib/gcc/x86_64-linux-gnu/4.8/../../../x86_64-linux-gnu/crt1.o
 .note.GNU-stack
                0x0000000000000000        0x0 /usr/lib/gcc/x86_64-linux-gnu/4.8/../../../x86_64-linux-gnu/crt1.o
 .gnu_debuglink
                0x0000000000000000        0xc /usr/lib/gcc/x86_64-linux-gnu/4.8/../../../x86_64-linux-gnu/crt1.o
 .text          0x0000000000000000        0x0 /usr/lib/gcc/x86_64-linux-gnu/4.8/../../../x86_64-linux-gnu/crti.o
 .data          0x0000000000000000        0x0 /usr/lib/gcc/x86_64-linux-gnu/4.8/../../../x86_64-linux-gnu/crti.o
 .bss           0x0000000000000000        0x0 /usr/lib/gcc/x86_64-linux-gnu/4.8/../../../x86_64-linux-gnu/crti.o
 .note.GNU-stack
                0x0000000000000000        0x0 /usr/lib/gcc/x86_64-linux-gnu/4.8/../../../x86_64-linux-gnu/crti.o
 .gnu_debuglink
                0x0000000000000000        0xc /usr/lib/gcc/x86_64-linux-gnu/4.8/../../../x86_64-linux-gnu/crti.o
 .data          0x0000000000000000        0x8 /usr/lib/gcc/x86_64-linux-gnu/4.8/crtbegin.o
 .note.GNU-stack
                0x0000000000000000        0x0 /usr/lib/gcc/x86_64-linux-gnu/4.8/crtbegin.o
 .text          0x0000000000000000        0x0 /home/mech-user/bebop_ws/devel/.private/bebop_driver/arsdk/out/Unix-base/build/BebopDroneReceiveStream/obj/BebopDroneReceiveStream.c.o
 .bss           0x0000000000000000        0x0 /home/mech-user/bebop_ws/devel/.private/bebop_driver/arsdk/out/Unix-base/build/BebopDroneReceiveStream/obj/BebopDroneReceiveStream.c.o
 .note.GNU-stack
                0x0000000000000000        0x0 /home/mech-user/bebop_ws/devel/.private/bebop_driver/arsdk/out/Unix-base/build/BebopDroneReceiveStream/obj/BebopDroneReceiveStream.c.o
 .data          0x0000000000000000        0x0 /usr/lib/x86_64-linux-gnu/libc_nonshared.a(elf-init.oS)
 .bss           0x0000000000000000        0x0 /usr/lib/x86_64-linux-gnu/libc_nonshared.a(elf-init.oS)
 .note.GNU-stack
                0x0000000000000000        0x0 /usr/lib/x86_64-linux-gnu/libc_nonshared.a(elf-init.oS)
 .text          0x0000000000000000        0x0 /usr/lib/gcc/x86_64-linux-gnu/4.8/crtend.o
 .data          0x0000000000000000        0x0 /usr/lib/gcc/x86_64-linux-gnu/4.8/crtend.o
 .bss           0x0000000000000000        0x0 /usr/lib/gcc/x86_64-linux-gnu/4.8/crtend.o
 .note.GNU-stack
                0x0000000000000000        0x0 /usr/lib/gcc/x86_64-linux-gnu/4.8/crtend.o
 .text          0x0000000000000000        0x0 /usr/lib/gcc/x86_64-linux-gnu/4.8/../../../x86_64-linux-gnu/crtn.o
 .data          0x0000000000000000        0x0 /usr/lib/gcc/x86_64-linux-gnu/4.8/../../../x86_64-linux-gnu/crtn.o
 .bss           0x0000000000000000        0x0 /usr/lib/gcc/x86_64-linux-gnu/4.8/../../../x86_64-linux-gnu/crtn.o
 .note.GNU-stack
                0x0000000000000000        0x0 /usr/lib/gcc/x86_64-linux-gnu/4.8/../../../x86_64-linux-gnu/crtn.o
 .gnu_debuglink
                0x0000000000000000        0xc /usr/lib/gcc/x86_64-linux-gnu/4.8/../../../x86_64-linux-gnu/crtn.o

メモリ設定

名前           原点             長さ             属性
*default*        0x0000000000000000 0xffffffffffffffff

リンカスクリプトおよびメモリマップ

LOAD /usr/lib/gcc/x86_64-linux-gnu/4.8/../../../x86_64-linux-gnu/crt1.o
LOAD /usr/lib/gcc/x86_64-linux-gnu/4.8/../../../x86_64-linux-gnu/crti.o
LOAD /usr/lib/gcc/x86_64-linux-gnu/4.8/crtbegin.o
LOAD /home/mech-user/bebop_ws/devel/.private/bebop_driver/arsdk/out/Unix-base/build/BebopDroneReceiveStream/obj/BebopDroneReceiveStream.c.o
LOAD /home/mech-user/bebop_ws/devel/.private/bebop_driver/arsdk/out/Unix-base/staging/usr/lib/libarsal.so
LOAD /home/mech-user/bebop_ws/devel/.private/bebop_driver/arsdk/out/Unix-base/staging/usr/lib/libarcommands.so
LOAD /home/mech-user/bebop_ws/devel/.private/bebop_driver/arsdk/out/Unix-base/staging/usr/lib/libarnetwork.so
LOAD /home/mech-user/bebop_ws/devel/.private/bebop_driver/arsdk/out/Unix-base/staging/usr/lib/libarnetworkal.so
LOAD /home/mech-user/bebop_ws/devel/.private/bebop_driver/arsdk/out/Unix-base/staging/usr/lib/libardiscovery.so
LOAD /home/mech-user/bebop_ws/devel/.private/bebop_driver/arsdk/out/Unix-base/staging/usr/lib/libarstream.so
LOAD /usr/lib/gcc/x86_64-linux-gnu/4.8/../../../x86_64-linux-gnu/librt.so
LOAD /usr/lib/gcc/x86_64-linux-gnu/4.8/libstdc++.so
LOAD /usr/lib/gcc/x86_64-linux-gnu/4.8/../../../x86_64-linux-gnu/libm.so
LOAD /usr/lib/gcc/x86_64-linux-gnu/4.8/libgcc_s.so
LOAD /usr/lib/gcc/x86_64-linux-gnu/4.8/libgcc.a
LOAD /usr/lib/gcc/x86_64-linux-gnu/4.8/../../../x86_64-linux-gnu/libpthread.so
START GROUP
LOAD /lib/x86_64-linux-gnu/libpthread.so.0
LOAD /usr/lib/x86_64-linux-gnu/libpthread_nonshared.a
END GROUP
LOAD /usr/lib/gcc/x86_64-linux-gnu/4.8/../../../x86_64-linux-gnu/libc.so
START GROUP
LOAD /lib/x86_64-linux-gnu/libc.so.6
LOAD /usr/lib/x86_64-linux-gnu/libc_nonshared.a
LOAD /lib/x86_64-linux-gnu/ld-linux-x86-64.so.2
END GROUP
LOAD /usr/lib/gcc/x86_64-linux-gnu/4.8/libgcc_s.so
LOAD /usr/lib/gcc/x86_64-linux-gnu/4.8/libgcc.a
LOAD /usr/lib/gcc/x86_64-linux-gnu/4.8/crtend.o
LOAD /usr/lib/gcc/x86_64-linux-gnu/4.8/../../../x86_64-linux-gnu/crtn.o
                0x0000000000400000                PROVIDE (__executable_start, 0x400000)
                0x0000000000400238                . = (0x400000 + SIZEOF_HEADERS)

.interp         0x0000000000400238       0x1c
 *(.interp)
 .interp        0x0000000000400238       0x1c /usr/lib/gcc/x86_64-linux-gnu/4.8/../../../x86_64-linux-gnu/crt1.o

.note.ABI-tag   0x0000000000400254       0x20
 .note.ABI-tag  0x0000000000400254       0x20 /usr/lib/gcc/x86_64-linux-gnu/4.8/../../../x86_64-linux-gnu/crt1.o

.note.gnu.build-id
                0x0000000000400274       0x24
 *(.note.gnu.build-id)
 .note.gnu.build-id
                0x0000000000400274       0x24 /usr/lib/gcc/x86_64-linux-gnu/4.8/../../../x86_64-linux-gnu/crt1.o

.hash
 *(.hash)

.gnu.hash       0x0000000000400298       0x28
 *(.gnu.hash)
 .gnu.hash      0x0000000000400298       0x28 /usr/lib/gcc/x86_64-linux-gnu/4.8/../../../x86_64-linux-gnu/crt1.o

.dynsym         0x00000000004002c0      0x5a0
 *(.dynsym)
 .dynsym        0x00000000004002c0      0x5a0 /usr/lib/gcc/x86_64-linux-gnu/4.8/../../../x86_64-linux-gnu/crt1.o

.dynstr         0x0000000000400860      0x586
 *(.dynstr)
 .dynstr        0x0000000000400860      0x586 /usr/lib/gcc/x86_64-linux-gnu/4.8/../../../x86_64-linux-gnu/crt1.o

.gnu.version    0x0000000000400de6       0x78
 *(.gnu.version)
 .gnu.version   0x0000000000400de6       0x78 /usr/lib/gcc/x86_64-linux-gnu/4.8/../../../x86_64-linux-gnu/crt1.o

.gnu.version_d  0x0000000000400e60        0x0
 *(.gnu.version_d)
 .gnu.version_d
                0x0000000000000000        0x0 /usr/lib/gcc/x86_64-linux-gnu/4.8/../../../x86_64-linux-gnu/crt1.o

.gnu.version_r  0x0000000000400e60       0x60
 *(.gnu.version_r)
 .gnu.version_r
                0x0000000000400e60       0x60 /usr/lib/gcc/x86_64-linux-gnu/4.8/../../../x86_64-linux-gnu/crt1.o

.rela.dyn       0x0000000000400ec0       0x78
 *(.rela.init)
 *(.rela.text .rela.text.* .rela.gnu.linkonce.t.*)
 .rela.text     0x0000000000000000        0x0 /usr/lib/gcc/x86_64-linux-gnu/4.8/../../../x86_64-linux-gnu/crt1.o
 *(.rela.fini)
 *(.rela.rodata .rela.rodata.* .rela.gnu.linkonce.r.*)
 *(.rela.data .rela.data.* .rela.gnu.linkonce.d.*)
 *(.rela.tdata .rela.tdata.* .rela.gnu.linkonce.td.*)
 *(.rela.tbss .rela.tbss.* .rela.gnu.linkonce.tb.*)
 *(.rela.ctors)
 *(.rela.dtors)
 *(.rela.got)
 .rela.got      0x0000000000400ec0       0x78 /usr/lib/gcc/x86_64-linux-gnu/4.8/../../../x86_64-linux-gnu/crt1.o
 *(.rela.bss .rela.bss.* .rela.gnu.linkonce.b.*)
 .rela.bss      0x0000000000000000        0x0 /usr/lib/gcc/x86_64-linux-gnu/4.8/../../../x86_64-linux-gnu/crt1.o
 *(.rela.ldata .rela.ldata.* .rela.gnu.linkonce.l.*)
 *(.rela.lbss .rela.lbss.* .rela.gnu.linkonce.lb.*)
 *(.rela.lrodata .rela.lrodata.* .rela.gnu.linkonce.lr.*)
 *(.rela.ifunc)

.rela.plt       0x0000000000400f38      0x468
 *(.rela.plt)
 .rela.plt      0x0000000000400f38      0x468 /usr/lib/gcc/x86_64-linux-gnu/4.8/../../../x86_64-linux-gnu/crt1.o
                0x00000000004013a0                PROVIDE (__rela_iplt_start, .)
 *(.rela.iplt)
 .rela.iplt     0x0000000000000000        0x0 /usr/lib/gcc/x86_64-linux-gnu/4.8/../../../x86_64-linux-gnu/crt1.o
                0x00000000004013a0                PROVIDE (__rela_iplt_end, .)

.init           0x00000000004013a0       0x1a
 *(SORT(.init))
 .init          0x00000000004013a0       0x15 /usr/lib/gcc/x86_64-linux-gnu/4.8/../../../x86_64-linux-gnu/crti.o
                0x00000000004013a0                _init
 .init          0x00000000004013b5        0x5 /usr/lib/gcc/x86_64-linux-gnu/4.8/../../../x86_64-linux-gnu/crtn.o

.plt            0x00000000004013c0      0x300
 *(.plt)
 .plt           0x00000000004013c0      0x300 /usr/lib/gcc/x86_64-linux-gnu/4.8/../../../x86_64-linux-gnu/crt1.o
                0x00000000004013d0                free@@GLIBC_2.2.5
                0x00000000004013e0                ARSAL_Thread_Destroy
                0x00000000004013f0                ARNETWORK_Manager_Delete
                0x0000000000401400                ARSAL_Thread_Create
                0x0000000000401410                ARNETWORKAL_Manager_Delete
                0x0000000000401420                strncpy@@GLIBC_2.2.5
                0x0000000000401430                ARSTREAM_Reader_Delete
                0x0000000000401440                ARNETWORKAL_Manager_Unlock
                0x0000000000401450                ARSTREAM_Reader_StopReader
                0x0000000000401460                ARCOMMANDS_Generator_GenerateARDrone3MediaStreamingVideoEnable
                0x0000000000401470                fclose@@GLIBC_2.2.5
                0x0000000000401480                ARNETWORK_Manager_New
                0x0000000000401490                __stack_chk_fail@@GLIBC_2.4
                0x00000000004014a0                ARSAL_Time_GetLocalTime
                0x00000000004014b0                ARNETWORK_Manager_SendData
                0x00000000004014c0                __libc_start_main@@GLIBC_2.2.5
                0x00000000004014d0                ARCOMMANDS_Decoder_DecodeBuffer
                0x00000000004014e0                calloc@@GLIBC_2.2.5
                0x00000000004014f0                ARSTREAM_Reader_New
                0x0000000000401500                ARSAL_Thread_Join
                0x0000000000401510                ARNETWORK_Manager_ReadDataWithTimeout
                0x0000000000401530                ARNETWORKAL_Error_ToString
                0x0000000000401540                ARSTREAM_Reader_InitStreamAckBuffer
                0x0000000000401550                kill@@GLIBC_2.2.5
                0x0000000000401560                ARNETWORK_Error_ToString
                0x0000000000401570                ARDISCOVERY_Error_ToString
                0x0000000000401580                ARCOMMANDS_Decoder_DescribeBuffer
                0x0000000000401590                malloc@@GLIBC_2.2.5
                0x00000000004015a0                fflush@@GLIBC_2.2.5
                0x00000000004015b0                ARSAL_Print_PrintRaw
                0x00000000004015c0                ARNETWORKAL_Manager_CloseWifiNetwork
                0x00000000004015d0                strftime@@GLIBC_2.2.5
                0x00000000004015e0                ARDISCOVERY_Connection_ControllerConnection
                0x00000000004015f0                ARSTREAM_Error_ToString
                0x0000000000401600                ARNETWORK_Manager_Stop
                0x0000000000401610                ARNETWORKAL_Manager_New
                0x0000000000401620                fopen@@GLIBC_2.2.5
                0x0000000000401630                ARDISCOVERY_Connection_Delete
                0x0000000000401640                ARSTREAM_Reader_InitStreamDataBuffer
                0x0000000000401650                fwrite@@GLIBC_2.2.5
                0x0000000000401660                execlp@@GLIBC_2.2.5
                0x0000000000401670                sleep@@GLIBC_2.2.5
                0x0000000000401680                ARNETWORKAL_Manager_InitWifiNetwork
                0x0000000000401690                fork@@GLIBC_2.2.5
                0x00000000004016a0                __sprintf_chk@@GLIBC_2.3.4
                0x00000000004016b0                ARDISCOVERY_Connection_New
 *(.iplt)
 .iplt          0x0000000000000000        0x0 /usr/lib/gcc/x86_64-linux-gnu/4.8/../../../x86_64-linux-gnu/crt1.o

.text           0x00000000004016c0     0x1b22
 *(.text.unlikely .text.*_unlikely .text.unlikely.*)
 *(.text.exit .text.exit.*)
 *(.text.startup .text.startup.*)
 .text.startup.main
                0x00000000004016c0      0x644 /home/mech-user/bebop_ws/devel/.private/bebop_driver/arsdk/out/Unix-base/build/BebopDroneReceiveStream/obj/BebopDroneReceiveStream.c.o
                0x00000000004016c0                main
 *(.text.hot .text.hot.*)
 *(.text .stub .text.* .gnu.linkonce.t.*)
 .text          0x0000000000401d04       0x2a /usr/lib/gcc/x86_64-linux-gnu/4.8/../../../x86_64-linux-gnu/crt1.o
                0x0000000000401d04                _start
 *fill*         0x0000000000401d2e        0x2 
 .text          0x0000000000401d30       0xbd /usr/lib/gcc/x86_64-linux-gnu/4.8/crtbegin.o
 *fill*         0x0000000000401ded        0x3 
 .text.onDisconnectNetwork
                0x0000000000401df0       0xb4 /home/mech-user/bebop_ws/devel/.private/bebop_driver/arsdk/out/Unix-base/build/BebopDroneReceiveStream/obj/BebopDroneReceiveStream.c.o
                0x0000000000401df0                onDisconnectNetwork
 *fill*         0x0000000000401ea4        0xc 
 .text.arnetworkCmdCallback
                0x0000000000401eb0       0xd4 /home/mech-user/bebop_ws/devel/.private/bebop_driver/arsdk/out/Unix-base/build/BebopDroneReceiveStream/obj/BebopDroneReceiveStream.c.o
                0x0000000000401eb0                arnetworkCmdCallback
 *fill*         0x0000000000401f84        0xc 
 .text.readerRun
                0x0000000000401f90      0x254 /home/mech-user/bebop_ws/devel/.private/bebop_driver/arsdk/out/Unix-base/build/BebopDroneReceiveStream/obj/BebopDroneReceiveStream.c.o
                0x0000000000401f90                readerRun
 *fill*         0x00000000004021e4        0xc 
 .text.ARDISCOVERY_Connection_SendJsonCallback
                0x00000000004021f0       0x97 /home/mech-user/bebop_ws/devel/.private/bebop_driver/arsdk/out/Unix-base/build/BebopDroneReceiveStream/obj/BebopDroneReceiveStream.c.o
                0x00000000004021f0                ARDISCOVERY_Connection_SendJsonCallback
 *fill*         0x0000000000402287        0x9 
 .text.ARDISCOVERY_Connection_ReceiveJsonCallback
                0x0000000000402290      0x10c /home/mech-user/bebop_ws/devel/.private/bebop_driver/arsdk/out/Unix-base/build/BebopDroneReceiveStream/obj/BebopDroneReceiveStream.c.o
                0x0000000000402290                ARDISCOVERY_Connection_ReceiveJsonCallback
 *fill*         0x000000000040239c        0x4 
 .text.frameCompleteCallback
                0x00000000004023a0       0x6b /home/mech-user/bebop_ws/devel/.private/bebop_driver/arsdk/out/Unix-base/build/BebopDroneReceiveStream/obj/BebopDroneReceiveStream.c.o
                0x00000000004023a0                frameCompleteCallback
 *fill*         0x000000000040240b        0x5 
 .text.ardiscoveryConnect
                0x0000000000402410      0x22d /home/mech-user/bebop_ws/devel/.private/bebop_driver/arsdk/out/Unix-base/build/BebopDroneReceiveStream/obj/BebopDroneReceiveStream.c.o
                0x0000000000402410                ardiscoveryConnect
 *fill*         0x000000000040263d        0x3 
 .text.startNetwork
                0x0000000000402640      0x3fd /home/mech-user/bebop_ws/devel/.private/bebop_driver/arsdk/out/Unix-base/build/BebopDroneReceiveStream/obj/BebopDroneReceiveStream.c.o
                0x0000000000402640                startNetwork
 *fill*         0x0000000000402a3d        0x3 
 .text.stopNetwork
                0x0000000000402a40      0x12b /home/mech-user/bebop_ws/devel/.private/bebop_driver/arsdk/out/Unix-base/build/BebopDroneReceiveStream/obj/BebopDroneReceiveStream.c.o
                0x0000000000402a40                stopNetwork
 *fill*         0x0000000000402b6b        0x5 
 .text.startVideo
                0x0000000000402b70      0x2f8 /home/mech-user/bebop_ws/devel/.private/bebop_driver/arsdk/out/Unix-base/build/BebopDroneReceiveStream/obj/BebopDroneReceiveStream.c.o
                0x0000000000402b70                startVideo
 *fill*         0x0000000000402e68        0x8 
 .text.stopVideo
                0x0000000000402e70      0x12c /home/mech-user/bebop_ws/devel/.private/bebop_driver/arsdk/out/Unix-base/build/BebopDroneReceiveStream/obj/BebopDroneReceiveStream.c.o
                0x0000000000402e70                stopVideo
 *fill*         0x0000000000402f9c        0x4 
 .text.sendBeginStream
                0x0000000000402fa0      0x1cd /home/mech-user/bebop_ws/devel/.private/bebop_driver/arsdk/out/Unix-base/build/BebopDroneReceiveStream/obj/BebopDroneReceiveStream.c.o
                0x0000000000402fa0                sendBeginStream
 *fill*         0x000000000040316d        0x3 
 .text          0x0000000000403170       0x72 /usr/lib/x86_64-linux-gnu/libc_nonshared.a(elf-init.oS)
                0x0000000000403170                __libc_csu_init
                0x00000000004031e0                __libc_csu_fini
 *(.gnu.warning)

.fini           0x00000000004031e4        0x9
 *(SORT(.fini))
 .fini          0x00000000004031e4        0x4 /usr/lib/gcc/x86_64-linux-gnu/4.8/../../../x86_64-linux-gnu/crti.o
                0x00000000004031e4                _fini
 .fini          0x00000000004031e8        0x5 /usr/lib/gcc/x86_64-linux-gnu/4.8/../../../x86_64-linux-gnu/crtn.o
                0x00000000004031ed                PROVIDE (__etext, .)
                0x00000000004031ed                PROVIDE (_etext, .)
                0x00000000004031ed                PROVIDE (etext, .)

.rodata         0x0000000000403200      0x7bc
 *(.rodata .rodata.* .gnu.linkonce.r.*)
 .rodata.str1.1
                0x0000000000403200       0x95 /home/mech-user/bebop_ws/devel/.private/bebop_driver/arsdk/out/Unix-base/build/BebopDroneReceiveStream/obj/BebopDroneReceiveStream.c.o
                                         0xa0 (緩和前のサイズ)
 *fill*         0x0000000000403295        0x3 
 .rodata.str1.8
                0x0000000000403298      0x640 /home/mech-user/bebop_ws/devel/.private/bebop_driver/arsdk/out/Unix-base/build/BebopDroneReceiveStream/obj/BebopDroneReceiveStream.c.o
                                        0x63d (緩和前のサイズ)
 *fill*         0x00000000004038d8        0x8 
 .rodata        0x00000000004038e0       0xdc /home/mech-user/bebop_ws/devel/.private/bebop_driver/arsdk/out/Unix-base/build/BebopDroneReceiveStream/obj/BebopDroneReceiveStream.c.o

.rodata1
 *(.rodata1)

.eh_frame_hdr   0x00000000004039bc       0x8c
 *(.eh_frame_hdr)
 .eh_frame_hdr  0x00000000004039bc       0x8c /usr/lib/gcc/x86_64-linux-gnu/4.8/../../../x86_64-linux-gnu/crt1.o

.eh_frame       0x0000000000403a48      0x43c
 *(.eh_frame)
 .eh_frame      0x0000000000403a48       0x30 /usr/lib/gcc/x86_64-linux-gnu/4.8/../../../x86_64-linux-gnu/crt1.o
 .eh_frame      0x0000000000403a78       0x40 /usr/lib/gcc/x86_64-linux-gnu/4.8/../../../x86_64-linux-gnu/crt1.o
 .eh_frame      0x0000000000403ab8      0x368 /home/mech-user/bebop_ws/devel/.private/bebop_driver/arsdk/out/Unix-base/build/BebopDroneReceiveStream/obj/BebopDroneReceiveStream.c.o
                                        0x360 (緩和前のサイズ)
 .eh_frame      0x0000000000403e20       0x60 /usr/lib/x86_64-linux-gnu/libc_nonshared.a(elf-init.oS)
                                         0x78 (緩和前のサイズ)
 .eh_frame      0x0000000000403e80        0x4 /usr/lib/gcc/x86_64-linux-gnu/4.8/crtend.o

.gcc_except_table
 *(.gcc_except_table .gcc_except_table.*)

.exception_ranges
 *(.exception_ranges .exception_ranges*)
                0x0000000000403e84                . = (ALIGN (0x200000) - ((0x200000 - .) & 0x1fffff))
                0x0000000000604d7c                . = DATA_SEGMENT_ALIGN (0x200000, 0x1000)

.eh_frame
 *(.eh_frame)

.gcc_except_table
 *(.gcc_except_table .gcc_except_table.*)

.exception_ranges
 *(.exception_ranges .exception_ranges*)

.tdata
 *(.tdata .tdata.* .gnu.linkonce.td.*)

.tbss
 *(.tbss .tbss.* .gnu.linkonce.tb.*)
 *(.tcommon)

.preinit_array  0x0000000000604d7c        0x0
                0x0000000000604d7c                PROVIDE (__preinit_array_start, .)
 *(.preinit_array)
                0x0000000000604d7c                PROVIDE (__preinit_array_end, .)

.init_array     0x0000000000604d80        0x8
                0x0000000000604d80                PROVIDE (__init_array_start, .)
 *(SORT(.init_array.*) SORT(.ctors.*))
 *(.init_array EXCLUDE_FILE(*crtend?.o *crtend.o *crtbegin?.o *crtbegin.o) .ctors)
 .init_array    0x0000000000604d80        0x8 /usr/lib/gcc/x86_64-linux-gnu/4.8/crtbegin.o
                0x0000000000604d88                PROVIDE (__init_array_end, .)

.fini_array     0x0000000000604d88        0x8
                0x0000000000604d88                PROVIDE (__fini_array_start, .)
 *(SORT(.fini_array.*) SORT(.dtors.*))
 *(.fini_array EXCLUDE_FILE(*crtend?.o *crtend.o *crtbegin?.o *crtbegin.o) .dtors)
 .fini_array    0x0000000000604d88        0x8 /usr/lib/gcc/x86_64-linux-gnu/4.8/crtbegin.o
                0x0000000000604d90                PROVIDE (__fini_array_end, .)

.ctors
 *crtbegin.o(.ctors)
 *crtbegin?.o(.ctors)
 *(EXCLUDE_FILE(*crtend?.o *crtend.o) .ctors)
 *(SORT(.ctors.*))
 *(.ctors)

.dtors
 *crtbegin.o(.dtors)
 *crtbegin?.o(.dtors)
 *(EXCLUDE_FILE(*crtend?.o *crtend.o) .dtors)
 *(SORT(.dtors.*))
 *(.dtors)

.jcr            0x0000000000604d90        0x8
 *(.jcr)
 .jcr           0x0000000000604d90        0x0 /usr/lib/gcc/x86_64-linux-gnu/4.8/crtbegin.o
 .jcr           0x0000000000604d90        0x8 /usr/lib/gcc/x86_64-linux-gnu/4.8/crtend.o

.data.rel.ro
 *(.data.rel.ro.local* .gnu.linkonce.d.rel.ro.local.*)
 *(.data.rel.ro .data.rel.ro.* .gnu.linkonce.d.rel.ro.*)

.dynamic        0x0000000000604d98      0x240
 *(.dynamic)
 .dynamic       0x0000000000604d98      0x240 /usr/lib/gcc/x86_64-linux-gnu/4.8/../../../x86_64-linux-gnu/crt1.o
                0x0000000000604d98                _DYNAMIC

.got            0x0000000000604fd8       0x28
 *(.got)
 .got           0x0000000000604fd8       0x28 /usr/lib/gcc/x86_64-linux-gnu/4.8/../../../x86_64-linux-gnu/crt1.o
 *(.igot)
                0x0000000000605fe8                . = DATA_SEGMENT_RELRO_END (., (SIZEOF (.got.plt) >= 0x18)?0x18:0x0)

.got.plt        0x0000000000605000      0x190
 *(.got.plt)
 .got.plt       0x0000000000605000      0x190 /usr/lib/gcc/x86_64-linux-gnu/4.8/../../../x86_64-linux-gnu/crt1.o
                0x0000000000605000                _GLOBAL_OFFSET_TABLE_
 *(.igot.plt)
 .igot.plt      0x0000000000000000        0x0 /usr/lib/gcc/x86_64-linux-gnu/4.8/../../../x86_64-linux-gnu/crt1.o

.data           0x00000000006051a0       0xe0
 *(.data .data.* .gnu.linkonce.d.*)
 .data          0x00000000006051a0       0xe0 /home/mech-user/bebop_ws/devel/.private/bebop_driver/arsdk/out/Unix-base/build/BebopDroneReceiveStream/obj/BebopDroneReceiveStream.c.o

.tm_clone_table
                0x0000000000605280        0x0
 .tm_clone_table
                0x0000000000605280        0x0 /usr/lib/gcc/x86_64-linux-gnu/4.8/crtbegin.o
 .tm_clone_table
                0x0000000000605280        0x0 /usr/lib/gcc/x86_64-linux-gnu/4.8/crtend.o

.data1
 *(.data1)
                0x0000000000605280                _edata = .
                0x0000000000605280                PROVIDE (edata, .)
                0x0000000000605280                . = .
                0x0000000000605280                __bss_start = .

.bss            0x0000000000605280        0x8
 *(.dynbss)
 .dynbss        0x0000000000000000        0x0 /usr/lib/gcc/x86_64-linux-gnu/4.8/../../../x86_64-linux-gnu/crt1.o
 *(.bss .bss.* .gnu.linkonce.b.*)
 .bss           0x0000000000605280        0x1 /usr/lib/gcc/x86_64-linux-gnu/4.8/crtbegin.o
 *(COMMON)
                0x0000000000605288                . = ALIGN ((. != 0x0)?0x8:0x1)
 *fill*         0x0000000000605281        0x7 

.lbss
 *(.dynlbss)
 *(.lbss .lbss.* .gnu.linkonce.lb.*)
 *(LARGE_COMMON)
                0x0000000000605288                . = ALIGN (0x8)
                0x0000000000605288                . = SEGMENT_START ("ldata-segment", .)

.lrodata
 *(.lrodata .lrodata.* .gnu.linkonce.lr.*)

.ldata          0x0000000000a05288        0x0
 *(.ldata .ldata.* .gnu.linkonce.l.*)
                0x0000000000a05288                . = ALIGN ((. != 0x0)?0x8:0x1)
                0x0000000000a05288                . = ALIGN (0x8)
                0x0000000000a05288                _end = .
                0x0000000000a05288                PROVIDE (end, .)
                0x0000000000a05288                . = DATA_SEGMENT_END (.)

.stab
 *(.stab)

.stabstr
 *(.stabstr)

.stab.excl
 *(.stab.excl)

.stab.exclstr
 *(.stab.exclstr)

.stab.index
 *(.stab.index)

.stab.indexstr
 *(.stab.indexstr)

.comment        0x0000000000000000       0x2b
 *(.comment)
 .comment       0x0000000000000000       0x2b /usr/lib/gcc/x86_64-linux-gnu/4.8/crtbegin.o
                                         0x2c (緩和前のサイズ)
 .comment       0x0000000000000000       0x2c /home/mech-user/bebop_ws/devel/.private/bebop_driver/arsdk/out/Unix-base/build/BebopDroneReceiveStream/obj/BebopDroneReceiveStream.c.o
 .comment       0x0000000000000000       0x2c /usr/lib/x86_64-linux-gnu/libc_nonshared.a(elf-init.oS)
 .comment       0x0000000000000000       0x2c /usr/lib/gcc/x86_64-linux-gnu/4.8/crtend.o

.debug
 *(.debug)

.line
 *(.line)

.debug_srcinfo
 *(.debug_srcinfo)

.debug_sfnames
 *(.debug_sfnames)

.debug_aranges  0x0000000000000000       0xf0
 *(.debug_aranges)
 .debug_aranges
                0x0000000000000000       0xf0 /home/mech-user/bebop_ws/devel/.private/bebop_driver/arsdk/out/Unix-base/build/BebopDroneReceiveStream/obj/BebopDroneReceiveStream.c.o

.debug_pubnames
 *(.debug_pubnames)

.debug_info     0x0000000000000000     0x3d98
 *(.debug_info .gnu.linkonce.wi.*)
 .debug_info    0x0000000000000000     0x3d98 /home/mech-user/bebop_ws/devel/.private/bebop_driver/arsdk/out/Unix-base/build/BebopDroneReceiveStream/obj/BebopDroneReceiveStream.c.o

.debug_abbrev   0x0000000000000000      0x42d
 *(.debug_abbrev)
 .debug_abbrev  0x0000000000000000      0x42d /home/mech-user/bebop_ws/devel/.private/bebop_driver/arsdk/out/Unix-base/build/BebopDroneReceiveStream/obj/BebopDroneReceiveStream.c.o

.debug_line     0x0000000000000000      0x770
 *(.debug_line .debug_line.* .debug_line_end)
 .debug_line    0x0000000000000000      0x770 /home/mech-user/bebop_ws/devel/.private/bebop_driver/arsdk/out/Unix-base/build/BebopDroneReceiveStream/obj/BebopDroneReceiveStream.c.o

.debug_frame
 *(.debug_frame)

.debug_str      0x0000000000000000     0x20b9
 *(.debug_str)
 .debug_str     0x0000000000000000     0x20b9 /home/mech-user/bebop_ws/devel/.private/bebop_driver/arsdk/out/Unix-base/build/BebopDroneReceiveStream/obj/BebopDroneReceiveStream.c.o
                                       0x2182 (緩和前のサイズ)

.debug_loc      0x0000000000000000     0x1346
 *(.debug_loc)
 .debug_loc     0x0000000000000000     0x1346 /home/mech-user/bebop_ws/devel/.private/bebop_driver/arsdk/out/Unix-base/build/BebopDroneReceiveStream/obj/BebopDroneReceiveStream.c.o

.debug_macinfo
 *(.debug_macinfo)

.debug_weaknames
 *(.debug_weaknames)

.debug_funcnames
 *(.debug_funcnames)

.debug_typenames
 *(.debug_typenames)

.debug_varnames
 *(.debug_varnames)

.debug_pubtypes
 *(.debug_pubtypes)

.debug_ranges   0x0000000000000000      0x5c0
 *(.debug_ranges)
 .debug_ranges  0x0000000000000000      0x5c0 /home/mech-user/bebop_ws/devel/.private/bebop_driver/arsdk/out/Unix-base/build/BebopDroneReceiveStream/obj/BebopDroneReceiveStream.c.o

.debug_macro
 *(.debug_macro)

.gnu.attributes
 *(.gnu.attributes)

/DISCARD/
 *(.note.GNU-stack)
 *(.gnu_debuglink)
 *(.gnu.lto_*)
OUTPUT(/home/mech-user/bebop_ws/devel/.private/bebop_driver/arsdk/out/Unix-base/build/BebopDroneReceiveStream/BebopDroneReceiveStream elf64-x86-64)
